target datalayout = "e-m:e-p270:32:32-p271:32:32-p272:64:64-i64:64-i128:128-f80:128-n8:16:32:64-S128"
target triple = "x86_64-unknown-linux-gnu"

@.str = private unnamed_addr constant [3 x i8] c"rb\00", align 1

; Function Attrs: mustprogress uwtable
define noundef zeroext i1 @_ZNK6Assimp15DefaultIOSystem6ExistsEPKc(ptr noundef nonnull align 8 dereferenceable(32) %this, ptr noundef %pFile) unnamed_addr #2 align 2 {
entry:
  %retval = alloca i1, align 1
  %this.addr = alloca ptr, align 8
  %pFile.addr = alloca ptr, align 8
  %file = alloca ptr, align 8
  store ptr %this, ptr %this.addr, align 8
  store ptr %pFile, ptr %pFile.addr, align 8
  %0 = load ptr, ptr %pFile.addr, align 8
  %call = call noalias ptr @fopen(ptr noundef %0, ptr noundef @.str)
  store ptr %call, ptr %file, align 8
  %1 = load ptr, ptr %file, align 8
  %tobool = icmp ne ptr %1, null
  br i1 %tobool, label %if.end, label %if.then

if.then:                                          ; preds = %entry
  store i1 false, ptr %retval, align 1
  br label %return

if.end:                                           ; preds = %entry
  %2 = load ptr, ptr %file, align 8
  %call2 = call i32 @fclose(ptr noundef %2)
  store i1 true, ptr %retval, align 1
  br label %return

return:                                           ; preds = %if.end, %if.then
  %3 = load i1, ptr %retval, align 1
  ret i1 %3
}