; Function Attrs: mustprogress nofree nounwind uwtable
define noundef zeroext i1 @_ZNK6Assimp15DefaultIOSystem6ExistsEPKc(ptr nocapture nonnull readnone align 8 %this, ptr nocapture noundef readonly %pFile) unnamed_addr #2 align 2 {
entry:
  %call = tail call noalias ptr @fopen(ptr noundef %pFile, ptr noundef nonnull @.str)
  %tobool.not = icmp ne ptr %call, null
  br i1 %tobool.not, label %if.end, label %return

if.end:                                           ; preds = %entry
  %call2 = tail call i32 @fclose(ptr noundef nonnull %call)
  br label %return

return:                                           ; preds = %entry, %if.end
  ret i1 %tobool.not
}